; Function Attrs: mustprogress nounwind uwtable
define void @_ZN28grpc_client_security_contextD2Ev(ptr nocapture noundef nonnull align 8 dereferenceable(32) %this) unnamed_addr #5 align 2 personality ptr @__gxx_personality_v0 {
entry:
  %auth_context = getelementptr inbounds i8, ptr %this, i64 8
  %0 = load ptr, ptr %auth_context, align 8
  store ptr null, ptr %auth_context, align 8
  %cmp.not.i = icmp eq ptr %0, null
  br i1 %cmp.not.i, label %invoke.cont2, label %if.then.i

if.then.i:                                        ; preds = %entry
  %1 = atomicrmw sub ptr %0, i64 1 acq_rel, align 8
  %cmp.i.i = icmp eq i64 %1, 1
  br i1 %cmp.i.i, label %_ZNK9grpc_core11UnrefDeleteclIK17grpc_auth_contextEEvPT_.exit.i, label %invoke.cont2

_ZNK9grpc_core11UnrefDeleteclIK17grpc_auth_contextEEvPT_.exit.i: ; preds = %if.then.i
  tail call void @_ZN17grpc_auth_contextD2Ev(ptr noundef nonnull align 8 dereferenceable(56) %0) #21
  tail call void @_ZdlPv(ptr noundef nonnull %0) #23
  br label %invoke.cont2

invoke.cont2:                                     ; preds = %_ZNK9grpc_core11UnrefDeleteclIK17grpc_auth_contextEEvPT_.exit.i, %if.then.i, %entry
  %extension = getelementptr inbounds i8, ptr %this, i64 16
  %2 = load ptr, ptr %extension, align 8
  %cmp.not = icmp eq ptr %2, null
  br i1 %cmp.not, label %if.end, label %land.lhs.true

land.lhs.true:                                    ; preds = %invoke.cont2
  %destroy = getelementptr inbounds i8, ptr %this, i64 24
  %3 = load ptr, ptr %destroy, align 8
  %cmp4.not = icmp eq ptr %3, null
  br i1 %cmp4.not, label %if.end, label %if.then

if.then:                                          ; preds = %land.lhs.true
  invoke void %3(ptr noundef nonnull %2)
          to label %if.end unwind label %terminate.lpad

if.end:                                           ; preds = %if.then, %land.lhs.true, %invoke.cont2
  %4 = load ptr, ptr %auth_context, align 8
  %cmp.not.i2 = icmp eq ptr %4, null
  br i1 %cmp.not.i2, label %_ZN9grpc_core13RefCountedPtrI17grpc_auth_contextED2Ev.exit, label %if.then.i3

if.then.i3:                                       ; preds = %if.end
  %5 = atomicrmw sub ptr %4, i64 1 acq_rel, align 8
  %cmp.i.i.i = icmp eq i64 %5, 1
  br i1 %cmp.i.i.i, label %if.then.i.i, label %_ZN9grpc_core13RefCountedPtrI17grpc_auth_contextED2Ev.exit

if.then.i.i:                                      ; preds = %if.then.i3
  tail call void @_ZN17grpc_auth_contextD2Ev(ptr noundef nonnull align 8 dereferenceable(56) %4) #21
  tail call void @_ZdlPv(ptr noundef nonnull %4) #23
  br label %_ZN9grpc_core13RefCountedPtrI17grpc_auth_contextED2Ev.exit

_ZN9grpc_core13RefCountedPtrI17grpc_auth_contextED2Ev.exit: ; preds = %if.end, %if.then.i3, %if.then.i.i
  %6 = load ptr, ptr %this, align 8
  %cmp.not.i4 = icmp eq ptr %6, null
  br i1 %cmp.not.i4, label %_ZN9grpc_core13RefCountedPtrI21grpc_call_credentialsED2Ev.exit, label %if.then.i5

if.then.i5:                                       ; preds = %_ZN9grpc_core13RefCountedPtrI17grpc_auth_contextED2Ev.exit
  %refs_.i.i = getelementptr inbounds i8, ptr %6, i64 8
  %7 = atomicrmw sub ptr %refs_.i.i, i64 1 acq_rel, align 8
  %cmp.i.i.i6 = icmp eq i64 %7, 1
  br i1 %cmp.i.i.i6, label %if.then.i.i7, label %_ZN9grpc_core13RefCountedPtrI21grpc_call_credentialsED2Ev.exit

if.then.i.i7:                                     ; preds = %if.then.i5
  %vtable.i.i.i = load ptr, ptr %6, align 8
  %vfn.i.i.i = getelementptr inbounds i8, ptr %vtable.i.i.i, i64 8
  %8 = load ptr, ptr %vfn.i.i.i, align 8
  tail call void %8(ptr noundef nonnull align 8 dereferenceable(20) %6) #21
  br label %_ZN9grpc_core13RefCountedPtrI21grpc_call_credentialsED2Ev.exit

_ZN9grpc_core13RefCountedPtrI21grpc_call_credentialsED2Ev.exit: ; preds = %_ZN9grpc_core13RefCountedPtrI17grpc_auth_contextED2Ev.exit, %if.then.i5, %if.then.i.i7
  ret void

terminate.lpad:                                   ; preds = %if.then
  %9 = landingpad { ptr, i32 }
          catch ptr null
  %10 = extractvalue { ptr, i32 } %9, 0
  tail call void @__clang_call_terminate(ptr %10) #22
  unreachable
}